target datalayout = "e-m:e-p270:32:32-p271:32:32-p272:64:64-i64:64-i128:128-f80:128-n8:16:32:64-S128"
target triple = "x86_64-pc-linux-gnu"

%struct.packet_netlink_data = type { i32, i32, i16 }

@hf_netlink_sock_diag_rmem_alloc = internal global i32 0, align 4
@hf_netlink_sock_diag_wmem_alloc = internal global i32 0, align 4
@hf_netlink_sock_diag_fwd_alloc = internal global i32 0, align 4
@hf_netlink_sock_diag_wmem_queued = internal global i32 0, align 4
@hf_netlink_sock_diag_shutdown = internal global i32 0, align 4
@.str.176 = private unnamed_addr constant [5 x i8] c": %s\00", align 1
@dissect_sock_diag_meminfo.hfs = internal global [6 x ptr] [ptr @hf_netlink_sock_diag_rmem_alloc, ptr @hf_netlink_sock_diag_rcvbuf, ptr @hf_netlink_sock_diag_wmem_alloc, ptr @hf_netlink_sock_diag_sndbuf, ptr @hf_netlink_sock_diag_fwd_alloc, ptr @hf_netlink_sock_diag_wmem_queued], align 16
@.str.178 = private unnamed_addr constant [23 x i8] c"Invalid how value (%x)\00", align 1

; Function Attrs: null_pointer_is_valid sspstrong uwtable
define internal void @sock_diag_proto_tree_add_shutdown(ptr noundef %0, ptr noundef %1, i32 noundef %2) #0 {
  %4 = alloca ptr, align 8
  %5 = alloca ptr, align 8
  %6 = alloca i32, align 4
  %7 = alloca i8, align 1
  store ptr %0, ptr %4, align 8
  store ptr %1, ptr %5, align 8
  store i32 %2, ptr %6, align 4
  call void @llvm.lifetime.start.p0(i64 1, ptr %7) #4
  %8 = load ptr, ptr %5, align 8
  %9 = load i32, ptr %6, align 4
  %10 = call zeroext i8 @tvb_get_uint8(ptr noundef %8, i32 noundef %9)
  store i8 %10, ptr %7, align 1
  %11 = load ptr, ptr %4, align 8
  %12 = load i32, ptr @hf_netlink_sock_diag_shutdown, align 4
  %13 = load ptr, ptr %5, align 8
  %14 = load i32, ptr %6, align 4
  %15 = call ptr @proto_tree_add_item(ptr noundef %11, i32 noundef %12, ptr noundef %13, i32 noundef %14, i32 noundef 1, i32 noundef 0)
  %16 = load ptr, ptr %4, align 8
  %17 = load i8, ptr %7, align 1
  %18 = zext i8 %17 to i32
  %19 = call ptr @val_to_str(i32 noundef %18, ptr noundef @netlink_sock_diag_shutdown_flags_vals, ptr noundef @.str.178)
  call void (ptr, ptr, ...) @proto_item_append_text(ptr noundef %16, ptr noundef @.str.176, ptr noundef %19)
  call void @llvm.lifetime.end.p0(i64 1, ptr %7) #4
  ret void
}

; Function Attrs: null_pointer_is_valid sspstrong uwtable
define internal i32 @dissect_sock_diag_meminfo(ptr noundef %0, ptr noundef %1, ptr noundef %2, ptr noundef %3, i32 noundef %4, i32 noundef %5) #0 {
  %7 = alloca i32, align 4
  %8 = alloca ptr, align 8
  %9 = alloca ptr, align 8
  %10 = alloca ptr, align 8
  %11 = alloca ptr, align 8
  %12 = alloca i32, align 4
  %13 = alloca i32, align 4
  %14 = alloca i32, align 4
  %15 = alloca i32, align 4
  store ptr %0, ptr %8, align 8
  store ptr %1, ptr %9, align 8
  store ptr %2, ptr %10, align 8
  store ptr %3, ptr %11, align 8
  store i32 %4, ptr %12, align 4
  store i32 %5, ptr %13, align 4
  call void @llvm.lifetime.start.p0(i64 4, ptr %14) #4
  %16 = load i32, ptr %13, align 4
  %17 = icmp eq i32 %16, 0
  br i1 %17, label %22, label %18

18:                                               ; preds = %6
  %19 = load i32, ptr %13, align 4
  %20 = srem i32 %19, 4
  %21 = icmp ne i32 %20, 0
  br i1 %21, label %22, label %23

22:                                               ; preds = %18, %6
  store i32 0, ptr %7, align 4
  store i32 1, ptr %15, align 4
  br label %58

23:                                               ; preds = %18
  store i32 0, ptr %14, align 4
  br label %24

24:                                               ; preds = %50, %23
  %25 = load i32, ptr %13, align 4
  %26 = icmp sge i32 %25, 4
  br i1 %26, label %27, label %31

27:                                               ; preds = %24
  %28 = load i32, ptr %14, align 4
  %29 = zext i32 %28 to i64
  %30 = icmp ult i64 %29, 6
  br label %31

31:                                               ; preds = %27, %24
  %32 = phi i1 [ false, %24 ], [ %30, %27 ]
  br i1 %32, label %33, label %53

33:                                               ; preds = %31
  %34 = load ptr, ptr %8, align 8
  %35 = load i32, ptr %14, align 4
  %36 = zext i32 %35 to i64
  %37 = getelementptr [6 x ptr], ptr @dissect_sock_diag_meminfo.hfs, i64 0, i64 %36
  %38 = load ptr, ptr %37, align 8
  %39 = load i32, ptr %38, align 4
  %40 = load ptr, ptr %11, align 8
  %41 = load i32, ptr %12, align 4
  %42 = load ptr, ptr %10, align 8
  %43 = getelementptr inbounds nuw %struct.packet_netlink_data, ptr %42, i32 0, i32 1
  %44 = load i32, ptr %43, align 4
  %45 = call ptr @proto_tree_add_item(ptr noundef %34, i32 noundef %39, ptr noundef %40, i32 noundef %41, i32 noundef 4, i32 noundef %44)
  %46 = load i32, ptr %12, align 4
  %47 = add i32 %46, 4
  store i32 %47, ptr %12, align 4
  %48 = load i32, ptr %13, align 4
  %49 = sub i32 %48, 4
  store i32 %49, ptr %13, align 4
  br label %50

50:                                               ; preds = %33
  %51 = load i32, ptr %14, align 4
  %52 = add i32 %51, 1
  store i32 %52, ptr %14, align 4
  br label %24, !llvm.loop !10

53:                                               ; preds = %31
  %54 = load i32, ptr %13, align 4
  %55 = icmp ne i32 %54, 0
  br i1 %55, label %56, label %57

56:                                               ; preds = %53
  br label %57

57:                                               ; preds = %56, %53
  store i32 1, ptr %7, align 4
  store i32 1, ptr %15, align 4
  br label %58

58:                                               ; preds = %57, %22
  call void @llvm.lifetime.end.p0(i64 4, ptr %14) #4
  %59 = load i32, ptr %7, align 4
  ret i32 %59
}

; Function Attrs: null_pointer_is_valid sspstrong uwtable
define internal i32 @dissect_sock_diag_inet_attributes(ptr noundef %0, ptr noundef %1, ptr noundef %2, ptr noundef %3, i32 noundef %4, i32 noundef %5, i32 noundef %6) #0 {
  %8 = alloca i32, align 4
  %9 = alloca ptr, align 8
  %10 = alloca ptr, align 8
  %11 = alloca ptr, align 8
  %12 = alloca ptr, align 8
  %13 = alloca i32, align 4
  %14 = alloca i32, align 4
  %15 = alloca i32, align 4
  %16 = alloca i32, align 4
  %17 = alloca ptr, align 8
  %18 = alloca i32, align 4
  store ptr %0, ptr %9, align 8
  store ptr %1, ptr %10, align 8
  store ptr %2, ptr %11, align 8
  store ptr %3, ptr %12, align 8
  store i32 %4, ptr %13, align 4
  store i32 %5, ptr %14, align 4
  store i32 %6, ptr %15, align 4
  call void @llvm.lifetime.start.p0(i64 4, ptr %16) #4
  %19 = load i32, ptr %13, align 4
  store i32 %19, ptr %16, align 4
  call void @llvm.lifetime.start.p0(i64 8, ptr %17) #4
  %20 = load ptr, ptr %10, align 8
  store ptr %20, ptr %17, align 8
  %21 = load i32, ptr %16, align 4
  switch i32 %21, label %82 [
    i32 1, label %22
    i32 7, label %65
    i32 8, label %73
    i32 2, label %81
    i32 3, label %81
    i32 4, label %81
    i32 5, label %81
    i32 6, label %81
    i32 9, label %81
    i32 10, label %81
    i32 11, label %81
    i32 12, label %81
    i32 13, label %81
    i32 14, label %81
    i32 15, label %81
    i32 16, label %81
  ]

22:                                               ; preds = %7
  %23 = load i32, ptr %15, align 4
  %24 = icmp eq i32 %23, 16
  br i1 %24, label %25, label %64

25:                                               ; preds = %22
  %26 = load ptr, ptr %12, align 8
  %27 = load i32, ptr @hf_netlink_sock_diag_rmem_alloc, align 4
  %28 = load ptr, ptr %9, align 8
  %29 = load i32, ptr %14, align 4
  %30 = load ptr, ptr %11, align 8
  %31 = getelementptr inbounds nuw %struct.packet_netlink_data, ptr %30, i32 0, i32 1
  %32 = load i32, ptr %31, align 4
  %33 = call ptr @proto_tree_add_item(ptr noundef %26, i32 noundef %27, ptr noundef %28, i32 noundef %29, i32 noundef 4, i32 noundef %32)
  %34 = load i32, ptr %14, align 4
  %35 = add i32 %34, 4
  store i32 %35, ptr %14, align 4
  %36 = load ptr, ptr %12, align 8
  %37 = load i32, ptr @hf_netlink_sock_diag_wmem_queued, align 4
  %38 = load ptr, ptr %9, align 8
  %39 = load i32, ptr %14, align 4
  %40 = load ptr, ptr %11, align 8
  %41 = getelementptr inbounds nuw %struct.packet_netlink_data, ptr %40, i32 0, i32 1
  %42 = load i32, ptr %41, align 4
  %43 = call ptr @proto_tree_add_item(ptr noundef %36, i32 noundef %37, ptr noundef %38, i32 noundef %39, i32 noundef 4, i32 noundef %42)
  %44 = load i32, ptr %14, align 4
  %45 = add i32 %44, 4
  store i32 %45, ptr %14, align 4
  %46 = load ptr, ptr %12, align 8
  %47 = load i32, ptr @hf_netlink_sock_diag_fwd_alloc, align 4
  %48 = load ptr, ptr %9, align 8
  %49 = load i32, ptr %14, align 4
  %50 = load ptr, ptr %11, align 8
  %51 = getelementptr inbounds nuw %struct.packet_netlink_data, ptr %50, i32 0, i32 1
  %52 = load i32, ptr %51, align 4
  %53 = call ptr @proto_tree_add_item(ptr noundef %46, i32 noundef %47, ptr noundef %48, i32 noundef %49, i32 noundef 4, i32 noundef %52)
  %54 = load i32, ptr %14, align 4
  %55 = add i32 %54, 4
  store i32 %55, ptr %14, align 4
  %56 = load ptr, ptr %12, align 8
  %57 = load i32, ptr @hf_netlink_sock_diag_wmem_alloc, align 4
  %58 = load ptr, ptr %9, align 8
  %59 = load i32, ptr %14, align 4
  %60 = load ptr, ptr %11, align 8
  %61 = getelementptr inbounds nuw %struct.packet_netlink_data, ptr %60, i32 0, i32 1
  %62 = load i32, ptr %61, align 4
  %63 = call ptr @proto_tree_add_item(ptr noundef %56, i32 noundef %57, ptr noundef %58, i32 noundef %59, i32 noundef 4, i32 noundef %62)
  store i32 1, ptr %8, align 4
  store i32 1, ptr %18, align 4
  br label %83

64:                                               ; preds = %22
  store i32 0, ptr %8, align 4
  store i32 1, ptr %18, align 4
  br label %83

65:                                               ; preds = %7
  %66 = load ptr, ptr %12, align 8
  %67 = load ptr, ptr %17, align 8
  %68 = load ptr, ptr %11, align 8
  %69 = load ptr, ptr %9, align 8
  %70 = load i32, ptr %14, align 4
  %71 = load i32, ptr %15, align 4
  %72 = call i32 @dissect_sock_diag_meminfo(ptr noundef %66, ptr noundef %67, ptr noundef %68, ptr noundef %69, i32 noundef %70, i32 noundef %71)
  store i32 %72, ptr %8, align 4
  store i32 1, ptr %18, align 4
  br label %83

73:                                               ; preds = %7
  %74 = load i32, ptr %15, align 4
  %75 = icmp eq i32 %74, 1
  br i1 %75, label %76, label %80

76:                                               ; preds = %73
  %77 = load ptr, ptr %12, align 8
  %78 = load ptr, ptr %9, align 8
  %79 = load i32, ptr %14, align 4
  call void @sock_diag_proto_tree_add_shutdown(ptr noundef %77, ptr noundef %78, i32 noundef %79)
  br label %80

80:                                               ; preds = %76, %73
  store i32 0, ptr %8, align 4
  store i32 1, ptr %18, align 4
  br label %83

81:                                               ; preds = %7, %7, %7, %7, %7, %7, %7, %7, %7, %7, %7, %7, %7
  br label %82

82:                                               ; preds = %7, %81
  store i32 0, ptr %8, align 4
  store i32 1, ptr %18, align 4
  br label %83

83:                                               ; preds = %82, %80, %65, %64, %25
  call void @llvm.lifetime.end.p0(i64 8, ptr %17) #4
  call void @llvm.lifetime.end.p0(i64 4, ptr %16) #4
  %84 = load i32, ptr %8, align 4
  ret i32 %84
}