; Function Attrs: null_pointer_is_valid sspstrong uwtable
define internal range(i32 0, 2) i32 @dissect_sock_diag_inet_attributes(ptr noundef %0, ptr readnone captures(none) %1, ptr noundef readonly captures(none) %2, ptr noundef %3, i32 noundef %4, i32 noundef %5, i32 noundef %6) #0 {
  switch i32 %4, label %dissect_sock_diag_meminfo.exit [
    i32 1, label %8
    i32 7, label %27
    i32 8, label %43
  ]

8:                                                ; preds = %7
  %9 = icmp eq i32 %6, 16
  br i1 %9, label %10, label %dissect_sock_diag_meminfo.exit

10:                                               ; preds = %8
  %11 = load i32, ptr @hf_netlink_sock_diag_rmem_alloc, align 4
  %12 = getelementptr inbounds nuw i8, ptr %2, i64 4
  %13 = load i32, ptr %12, align 4
  %14 = tail call ptr @proto_tree_add_item(ptr noundef %3, i32 noundef %11, ptr noundef %0, i32 noundef %5, i32 noundef 4, i32 noundef %13)
  %15 = add i32 %5, 4
  %16 = load i32, ptr @hf_netlink_sock_diag_wmem_queued, align 4
  %17 = load i32, ptr %12, align 4
  %18 = tail call ptr @proto_tree_add_item(ptr noundef %3, i32 noundef %16, ptr noundef %0, i32 noundef %15, i32 noundef 4, i32 noundef %17)
  %19 = add i32 %5, 8
  %20 = load i32, ptr @hf_netlink_sock_diag_fwd_alloc, align 4
  %21 = load i32, ptr %12, align 4
  %22 = tail call ptr @proto_tree_add_item(ptr noundef %3, i32 noundef %20, ptr noundef %0, i32 noundef %19, i32 noundef 4, i32 noundef %21)
  %23 = add i32 %5, 12
  %24 = load i32, ptr @hf_netlink_sock_diag_wmem_alloc, align 4
  %25 = load i32, ptr %12, align 4
  %26 = tail call ptr @proto_tree_add_item(ptr noundef %3, i32 noundef %24, ptr noundef %0, i32 noundef %23, i32 noundef 4, i32 noundef %25)
  br label %dissect_sock_diag_meminfo.exit

27:                                               ; preds = %7
  %28 = icmp ne i32 %6, 0
  %29 = and i32 %6, 3
  %.not.i = icmp eq i32 %29, 0
  %or.cond.i = and i1 %28, %.not.i
  br i1 %or.cond.i, label %.preheader.i, label %dissect_sock_diag_meminfo.exit

.preheader.i:                                     ; preds = %27
  %30 = icmp sgt i32 %6, 3
  br i1 %30, label %.lr.ph.i, label %dissect_sock_diag_meminfo.exit

.lr.ph.i:                                         ; preds = %.preheader.i
  %31 = getelementptr inbounds nuw i8, ptr %2, i64 4
  %32 = add nsw i32 %6, -4
  %33 = lshr exact i32 %32, 2
  %34 = tail call i32 @llvm.umin.i32(i32 %33, i32 5)
  %narrow = add nuw nsw i32 %34, 1
  %35 = zext nneg i32 %narrow to i64
  br label %36

36:                                               ; preds = %36, %.lr.ph.i
  %indvars.iv.i = phi i64 [ 0, %.lr.ph.i ], [ %indvars.iv.next.i, %36 ]
  %.0141.i = phi i32 [ %5, %.lr.ph.i ], [ %42, %36 ]
  %37 = getelementptr [6 x ptr], ptr @dissect_sock_diag_meminfo.hfs, i64 0, i64 %indvars.iv.i
  %38 = load ptr, ptr %37, align 8
  %39 = load i32, ptr %38, align 4
  %40 = load i32, ptr %31, align 4
  %41 = tail call ptr @proto_tree_add_item(ptr noundef %3, i32 noundef %39, ptr noundef %0, i32 noundef %.0141.i, i32 noundef 4, i32 noundef %40)
  %42 = add i32 %.0141.i, 4
  %indvars.iv.next.i = add nuw nsw i64 %indvars.iv.i, 1
  %exitcond.not = icmp eq i64 %indvars.iv.next.i, %35
  br i1 %exitcond.not, label %dissect_sock_diag_meminfo.exit, label %36, !llvm.loop !8

43:                                               ; preds = %7
  %44 = icmp eq i32 %6, 1
  br i1 %44, label %45, label %dissect_sock_diag_meminfo.exit

45:                                               ; preds = %43
  %46 = tail call zeroext i8 @tvb_get_uint8(ptr noundef %0, i32 noundef %5)
  %47 = load i32, ptr @hf_netlink_sock_diag_shutdown, align 4
  %48 = tail call ptr @proto_tree_add_item(ptr noundef %3, i32 noundef %47, ptr noundef %0, i32 noundef %5, i32 noundef 1, i32 noundef 0)
  %49 = zext i8 %46 to i32
  %50 = tail call ptr @val_to_str(i32 noundef %49, ptr noundef nonnull @netlink_sock_diag_shutdown_flags_vals, ptr noundef nonnull @.str.178)
  tail call void (ptr, ptr, ...) @proto_item_append_text(ptr noundef %3, ptr noundef nonnull @.str.176, ptr noundef %50)
  br label %dissect_sock_diag_meminfo.exit

dissect_sock_diag_meminfo.exit:                   ; preds = %36, %.preheader.i, %27, %7, %43, %45, %8, %10
  %.0 = phi i32 [ 1, %10 ], [ 0, %8 ], [ 0, %45 ], [ 0, %43 ], [ 0, %7 ], [ 0, %27 ], [ 1, %.preheader.i ], [ 1, %36 ]
  ret i32 %.0
}